; Function Attrs: nounwind uwtable
define hidden zeroext i1 @X11_HasClipboardData(ptr noundef readonly captures(none) %0, ptr noundef %1) local_unnamed_addr #0 {
  %3 = alloca i64, align 8
  call void @llvm.lifetime.start.p0(i64 8, ptr nonnull %3) #6
  %4 = getelementptr inbounds nuw i8, ptr %0, i64 1656
  %5 = load ptr, ptr %4, align 8
  %6 = getelementptr inbounds nuw i8, ptr %5, i64 440
  %7 = load i64, ptr %6, align 8
  %8 = call fastcc ptr @GetSelectionData(ptr noundef readonly %0, i64 noundef %7, ptr noundef %1, ptr noundef nonnull %3)
  %.not = icmp eq ptr %8, null
  br i1 %.not, label %10, label %9

9:                                                ; preds = %2
  call void @SDL_free_REAL(ptr noundef nonnull %8) #6
  br label %10

10:                                               ; preds = %9, %2
  %11 = load i64, ptr %3, align 8
  %12 = icmp ne i64 %11, 0
  call void @llvm.lifetime.end.p0(i64 8, ptr nonnull %3) #6
  ret i1 %12
}